<*GNU-Linker-generated-mapfile*> 
generated for DSx86_32 platform 
collect2 version 10.3.0
c:/program files/dspace rcphil 2023-b/compiler/linux_4.14_gcc_10.3/target/x86_64-linux-gnu/bin/../lib/gcc/x86_64-linux-gnu/10.3.0/../../../../x86_64-linux-gnu/bin/ld.exe -plugin c:/program files/dspace rcphil 2023-b/compiler/linux_4.14_gcc_10.3/target/x86_64-linux-gnu/bin/../libexec/gcc/x86_64-linux-gnu/10.3.0/liblto_plugin-0.dll -plugin-opt=c:/program files/dspace rcphil 2023-b/compiler/linux_4.14_gcc_10.3/target/x86_64-linux-gnu/bin/../libexec/gcc/x86_64-linux-gnu/10.3.0/lto-wrapper.exe -plugin-opt=-fresolution=C:\Users\MURTI\AppData\Local\Temp\ccXSRuxx.res -plugin-opt=-pass-through=-lgcc_s -plugin-opt=-pass-through=-lgcc -plugin-opt=-pass-through=-lc -plugin-opt=-pass-through=-lgcc_s -plugin-opt=-pass-through=-lgcc --sysroot=c:\program files\dspace rcphil 2023-b\compiler\linux_4.14_gcc_10.3\target\x86_64-linux-gnu\bin\../../x86_64-linux-gnu --build-id --eh-frame-hdr -m elf_x86_64 -dynamic-linker /lib64/ld-linux-x86-64.so.2 c:/program files/dspace rcphil 2023-b/compiler/linux_4.14_gcc_10.3/target/x86_64-linux-gnu/bin/../../x86_64-linux-gnu/lib/crt1.o c:/program files/dspace rcphil 2023-b/compiler/linux_4.14_gcc_10.3/target/x86_64-linux-gnu/bin/../../x86_64-linux-gnu/lib/crti.o c:/program files/dspace rcphil 2023-b/compiler/linux_4.14_gcc_10.3/target/x86_64-linux-gnu/bin/../lib/gcc/x86_64-linux-gnu/10.3.0/crtbegin.o -Lc:/program files/dspace rcphil 2023-b/compiler/linux_4.14_gcc_10.3/target/x86_64-linux-gnu/bin/../lib/gcc/x86_64-linux-gnu/10.3.0 -Lc:/program files/dspace rcphil 2023-b/compiler/linux_4.14_gcc_10.3/target/x86_64-linux-gnu/bin/../lib/gcc -Lc:/program files/dspace rcphil 2023-b/compiler/linux_4.14_gcc_10.3/target/x86_64-linux-gnu/bin/../lib/gcc/x86_64-linux-gnu/10.3.0/../../../../x86_64-linux-gnu/lib/../lib64 -Lc:/program files/dspace rcphil 2023-b/compiler/linux_4.14_gcc_10.3/target/x86_64-linux-gnu/bin/../lib/gcc/x86_64-linux-gnu/10.3.0/../../../../x86_64-linux-gnu/lib -Lc:/program files/dspace rcphil 2023-b/compiler/linux_4.14_gcc_10.3/target/x86_64-linux-gnu/bin/../../x86_64-linux-gnu/lib -v --unresolved-symbols=ignore-all -lstdc++ -lm -lgcc_s -lgcc -lc -lgcc_s -lgcc c:/program files/dspace rcphil 2023-b/compiler/linux_4.14_gcc_10.3/target/x86_64-linux-gnu/bin/../lib/gcc/x86_64-linux-gnu/10.3.0/crtend.o c:/program files/dspace rcphil 2023-b/compiler/linux_4.14_gcc_10.3/target/x86_64-linux-gnu/bin/../../x86_64-linux-gnu/lib/crtn.o
GNU ld (GNU Binutils) 2.35
Archive member included to satisfy reference by file (symbol)

C:\Users\MURTI\AppData\Local\Temp\dSPACE\CfgDesk\AppCache\2\Build\DspaceLedWithArduion\Compile\DspaceLedWithArduion\DspaceLedWithArduion.a(DspaceLedWithArduion_dsrtmdlfcn.o64)
                              dssimengine_accesspoint.o64 (DspaceLedWithArduion_DSRTInitMdl)
C:\Users\MURTI\AppData\Local\Temp\dSPACE\CfgDesk\AppCache\2\Build\DspaceLedWithArduion\Compile\DspaceLedWithArduion\DspaceLedWithArduion.a(DspaceLedWithArduion_dsrttf.o64)
                              rtosal_task.o64 (DspaceLedWithArduion_DSRTMdlOutputs0)
C:\Users\MURTI\AppData\Local\Temp\dSPACE\CfgDesk\AppCache\2\Build\DspaceLedWithArduion\Compile\DspaceLedWithArduion\DspaceLedWithArduion.a(DspaceLedWithArduion.o64)
                              C:\Users\MURTI\AppData\Local\Temp\dSPACE\CfgDesk\AppCache\2\Build\DspaceLedWithArduion\Compile\DspaceLedWithArduion\DspaceLedWithArduion.a(DspaceLedWithArduion_dsrttf.o64) (DspaceLedWithArduion_output)
C:\Users\MURTI\AppData\Local\Temp\dSPACE\CfgDesk\AppCache\2\Build\DspaceLedWithArduion\Compile\DspaceLedWithArduion\DspaceLedWithArduion.a(DspaceLedWithArduion_data.o64)
                              C:\Users\MURTI\AppData\Local\Temp\dSPACE\CfgDesk\AppCache\2\Build\DspaceLedWithArduion\Compile\DspaceLedWithArduion\DspaceLedWithArduion.a(DspaceLedWithArduion.o64) (DspaceLedWithArduion_P)
C:\Users\MURTI\AppData\Local\Temp\dSPACE\CfgDesk\AppCache\2\Build\DspaceLedWithArduion\Compile\DspaceLedWithArduion\DspaceLedWithArduion.a(DspaceLedWithArduion_dsrtvdf.o64)
                              C:\Users\MURTI\AppData\Local\Temp\dSPACE\CfgDesk\AppCache\2\Build\DspaceLedWithArduion\Compile\DspaceLedWithArduion\DspaceLedWithArduion.a(DspaceLedWithArduion.o64) (DspaceLedWithArduion_rti_init_trc_pointers)
C:\Program Files\dSPACE RCPHIL 2023-B\Compiler\Linux_4.14_GCC_10.3\target\x86_64-linux-gnu\lib\libc_nonshared.a(elf-init.oS)
                              c:/program files/dspace rcphil 2023-b/compiler/linux_4.14_gcc_10.3/target/x86_64-linux-gnu/bin/../../x86_64-linux-gnu/lib/Scrt1.o (__libc_csu_init)

Merging program properties

Removed property 0xc0000002 to merge c:/program files/dspace rcphil 2023-b/compiler/linux_4.14_gcc_10.3/target/x86_64-linux-gnu/bin/../lib/gcc/x86_64-linux-gnu/10.3.0/crtbeginS.o (0x3) and c:/program files/dspace rcphil 2023-b/compiler/linux_4.14_gcc_10.3/target/x86_64-linux-gnu/bin/../../x86_64-linux-gnu/lib/Scrt1.o (not found)
Removed property 0xc0000002 to merge c:/program files/dspace rcphil 2023-b/compiler/linux_4.14_gcc_10.3/target/x86_64-linux-gnu/bin/../lib/gcc/x86_64-linux-gnu/10.3.0/crtbeginS.o (not found) and c:/program files/dspace rcphil 2023-b/compiler/linux_4.14_gcc_10.3/target/x86_64-linux-gnu/bin/../lib/gcc/x86_64-linux-gnu/10.3.0/crtendS.o (0x3)

As-needed library included to satisfy reference by file (symbol)

libDsRealTimeTestingRP.so.1   rtosal_task.o64 (dsrtt_script_service_post_computation)

Discarded input sections

 .note.GNU-stack
                0x0000000000000000        0x0 c:/program files/dspace rcphil 2023-b/compiler/linux_4.14_gcc_10.3/target/x86_64-linux-gnu/bin/../../x86_64-linux-gnu/lib/Scrt1.o
 .note.GNU-stack
                0x0000000000000000        0x0 c:/program files/dspace rcphil 2023-b/compiler/linux_4.14_gcc_10.3/target/x86_64-linux-gnu/bin/../../x86_64-linux-gnu/lib/crti.o
 .note.GNU-stack
                0x0000000000000000        0x0 c:/program files/dspace rcphil 2023-b/compiler/linux_4.14_gcc_10.3/target/x86_64-linux-gnu/bin/../lib/gcc/x86_64-linux-gnu/10.3.0/crtbeginS.o
 .note.gnu.property
                0x0000000000000000       0x20 c:/program files/dspace rcphil 2023-b/compiler/linux_4.14_gcc_10.3/target/x86_64-linux-gnu/bin/../lib/gcc/x86_64-linux-gnu/10.3.0/crtbeginS.o
 .note.GNU-stack
                0x0000000000000000        0x0 mdladapter_mdlfunctions.o64
 .note.GNU-stack
                0x0000000000000000        0x0 mdlCode_ap.o64
 .note.GNU-stack
                0x0000000000000000        0x0 data_in_ap.o64
 .note.GNU-stack
                0x0000000000000000        0x0 data_out_ap.o64
 .note.GNU-stack
                0x0000000000000000        0x0 fm_entry_ap.o64
 .note.GNU-stack
                0x0000000000000000        0x0 fm_exit_ap.o64
 .note.GNU-stack
                0x0000000000000000        0x0 dssimengine_accesspoint.o64
 .note.GNU-stack
                0x0000000000000000        0x0 dssimengine_api.o64
 .group         0x0000000000000000        0x8 dssimengine_main.o64
 .group         0x0000000000000000        0xc dssimengine_main.o64
 .group         0x0000000000000000        0xc dssimengine_main.o64
 .group         0x0000000000000000        0xc dssimengine_main.o64
 .note.GNU-stack
                0x0000000000000000        0x0 dssimengine_main.o64
 .group         0x0000000000000000        0x8 rtosal_task.o64
 .group         0x0000000000000000        0xc rtosal_task.o64
 .group         0x0000000000000000        0xc rtosal_task.o64
 .group         0x0000000000000000        0xc rtosal_task.o64
 .data.rel.local.DW.ref.__gxx_personality_v0
                0x0000000000000000        0x8 rtosal_task.o64
 .note.GNU-stack
                0x0000000000000000        0x0 rtosal_task.o64
 .note.GNU-stack
                0x0000000000000000        0x0 rtosal_taskap.o64
 .note.GNU-stack
                0x0000000000000000        0x0 rtosal_simengineap.o64
 .note.GNU-stack
                0x0000000000000000        0x0 IOCode_Data.o64
 .note.GNU-stack
                0x0000000000000000        0x0 dssimengine_accesspoint_Voltage_Out.o64
 .note.GNU-stack
                0x0000000000000000        0x0 C:\Users\MURTI\AppData\Local\Temp\dSPACE\CfgDesk\AppCache\2\Build\DspaceLedWithArduion\Compile\DspaceLedWithArduion\DspaceLedWithArduion.a(DspaceLedWithArduion_dsrtmdlfcn.o64)
 .note.GNU-stack
                0x0000000000000000        0x0 C:\Users\MURTI\AppData\Local\Temp\dSPACE\CfgDesk\AppCache\2\Build\DspaceLedWithArduion\Compile\DspaceLedWithArduion\DspaceLedWithArduion.a(DspaceLedWithArduion_dsrttf.o64)
 .note.GNU-stack
                0x0000000000000000        0x0 C:\Users\MURTI\AppData\Local\Temp\dSPACE\CfgDesk\AppCache\2\Build\DspaceLedWithArduion\Compile\DspaceLedWithArduion\DspaceLedWithArduion.a(DspaceLedWithArduion.o64)
 .note.GNU-stack
                0x0000000000000000        0x0 C:\Users\MURTI\AppData\Local\Temp\dSPACE\CfgDesk\AppCache\2\Build\DspaceLedWithArduion\Compile\DspaceLedWithArduion\DspaceLedWithArduion.a(DspaceLedWithArduion_data.o64)
 .note.GNU-stack
                0x0000000000000000        0x0 C:\Users\MURTI\AppData\Local\Temp\dSPACE\CfgDesk\AppCache\2\Build\DspaceLedWithArduion\Compile\DspaceLedWithArduion\DspaceLedWithArduion.a(DspaceLedWithArduion_dsrtvdf.o64)
 .note.GNU-stack
                0x0000000000000000        0x0 C:\Program Files\dSPACE RCPHIL 2023-B\Compiler\Linux_4.14_GCC_10.3\target\x86_64-linux-gnu\lib\libc_nonshared.a(elf-init.oS)
 .note.GNU-stack
                0x0000000000000000        0x0 c:/program files/dspace rcphil 2023-b/compiler/linux_4.14_gcc_10.3/target/x86_64-linux-gnu/bin/../lib/gcc/x86_64-linux-gnu/10.3.0/crtendS.o
 .note.gnu.property
                0x0000000000000000       0x20 c:/program files/dspace rcphil 2023-b/compiler/linux_4.14_gcc_10.3/target/x86_64-linux-gnu/bin/../lib/gcc/x86_64-linux-gnu/10.3.0/crtendS.o
 .note.GNU-stack
                0x0000000000000000        0x0 c:/program files/dspace rcphil 2023-b/compiler/linux_4.14_gcc_10.3/target/x86_64-linux-gnu/bin/../../x86_64-linux-gnu/lib/crtn.o

Memory Configuration

Name             Origin             Length             Attributes
*default*        0x0000000000000000 0xffffffffffffffff

Linker script and memory map

LOAD c:/program files/dspace rcphil 2023-b/compiler/linux_4.14_gcc_10.3/target/x86_64-linux-gnu/bin/../../x86_64-linux-gnu/lib/Scrt1.o
LOAD c:/program files/dspace rcphil 2023-b/compiler/linux_4.14_gcc_10.3/target/x86_64-linux-gnu/bin/../../x86_64-linux-gnu/lib/crti.o
LOAD c:/program files/dspace rcphil 2023-b/compiler/linux_4.14_gcc_10.3/target/x86_64-linux-gnu/bin/../lib/gcc/x86_64-linux-gnu/10.3.0/crtbeginS.o
                0x00000000000009ce                DS_TARGET_PLATFORM = 0x9ce
LOAD C:\Program Files\dSPACE RCPHIL 2023-B\Compiler\Linux_4.14_GCC_10.3\target\x86_64-linux-gnu\lib/libpthread.so
LOAD C:\Program Files\dSPACE RCPHIL 2023-B\Compiler\Linux_4.14_GCC_10.3\target\x86_64-linux-gnu\lib/librt.so
LOAD C:\Program Files\dSPACE RCPHIL 2023-B\Compiler\Linux_4.14_GCC_10.3\target\x86_64-linux-gnu\lib/libdl.so
START GROUP
LOAD mdladapter_mdlfunctions.o64
LOAD mdlCode_ap.o64
LOAD data_in_ap.o64
LOAD data_out_ap.o64
LOAD fm_entry_ap.o64
LOAD fm_exit_ap.o64
LOAD dssimengine_accesspoint.o64
LOAD dssimengine_api.o64
LOAD dssimengine_main.o64
LOAD rtosal_task.o64
LOAD rtosal_taskap.o64
LOAD rtosal_simengineap.o64
LOAD IOCode_Data.o64
LOAD dssimengine_accesspoint_Voltage_Out.o64
LOAD C:\Users\MURTI\AppData\Local\Temp\dSPACE\CfgDesk\AppCache\2\Build\DspaceLedWithArduion\Compile\DspaceLedWithArduion\DspaceLedWithArduion.a
LOAD C:\Program Files\dSPACE RCPHIL 2023-B\SCALEXIO\lib64/libdsanalogoutdrv.so
LOAD C:\Program Files\dSPACE RCPHIL 2023-B\SCALEXIO\lib64/libdscandrv.so
LOAD C:\Program Files\dSPACE RCPHIL 2023-B\SCALEXIO\lib64/libdslindrv.so
LOAD C:\Program Files\dSPACE RCPHIL 2023-B\SCALEXIO\lib64/libdsethernetinterfacemanagementdrv.so
END GROUP
LOAD C:\Program Files\dSPACE RCPHIL 2023-B\SCALEXIO\lib64/libDsRtLib.so
LOAD C:\Program Files\dSPACE RCPHIL 2023-B\Compiler\Linux_4.14_GCC_10.3\target\x86_64-linux-gnu\x86_64-linux-gnu\lib64/libstdc++.so
LOAD C:\Program Files\dSPACE RCPHIL 2023-B\Compiler\Linux_4.14_GCC_10.3\target\x86_64-linux-gnu\lib/libm.so
START GROUP
LOAD C:\Program Files\dSPACE RCPHIL 2023-B\Compiler\Linux_4.14_GCC_10.3\target\x86_64-linux-gnu\lib\libm.so.6
LOAD C:\Program Files\dSPACE RCPHIL 2023-B\Compiler\Linux_4.14_GCC_10.3\target\x86_64-linux-gnu\lib\libmvec.so.1
END GROUP
LOAD C:\Program Files\dSPACE RCPHIL 2023-B\Compiler\Linux_4.14_GCC_10.3\target\x86_64-linux-gnu\x86_64-linux-gnu\lib/libgcc_s.so
START GROUP
LOAD C:\Program Files\dSPACE RCPHIL 2023-B\Compiler\Linux_4.14_GCC_10.3\target\x86_64-linux-gnu\x86_64-linux-gnu\lib\libgcc_s.so.1
LOAD c:/program files/dspace rcphil 2023-b/compiler/linux_4.14_gcc_10.3/target/x86_64-linux-gnu/bin/../lib/gcc/x86_64-linux-gnu/10.3.0\libgcc.a
END GROUP
LOAD c:/program files/dspace rcphil 2023-b/compiler/linux_4.14_gcc_10.3/target/x86_64-linux-gnu/bin/../lib/gcc/x86_64-linux-gnu/10.3.0\libgcc.a
LOAD C:\Program Files\dSPACE RCPHIL 2023-B\Compiler\Linux_4.14_GCC_10.3\target\x86_64-linux-gnu\lib/libc.so
START GROUP
LOAD C:\Program Files\dSPACE RCPHIL 2023-B\Compiler\Linux_4.14_GCC_10.3\target\x86_64-linux-gnu\lib\libc.so.6
LOAD C:\Program Files\dSPACE RCPHIL 2023-B\Compiler\Linux_4.14_GCC_10.3\target\x86_64-linux-gnu\lib\libc_nonshared.a
LOAD C:\Program Files\dSPACE RCPHIL 2023-B\Compiler\Linux_4.14_GCC_10.3\target\x86_64-linux-gnu\lib\ld-linux-x86-64.so.2
END GROUP
LOAD C:\Program Files\dSPACE RCPHIL 2023-B\Compiler\Linux_4.14_GCC_10.3\target\x86_64-linux-gnu\x86_64-linux-gnu\lib/libgcc_s.so
START GROUP
LOAD C:\Program Files\dSPACE RCPHIL 2023-B\Compiler\Linux_4.14_GCC_10.3\target\x86_64-linux-gnu\x86_64-linux-gnu\lib\libgcc_s.so.1
LOAD c:/program files/dspace rcphil 2023-b/compiler/linux_4.14_gcc_10.3/target/x86_64-linux-gnu/bin/../lib/gcc/x86_64-linux-gnu/10.3.0\libgcc.a
END GROUP
LOAD c:/program files/dspace rcphil 2023-b/compiler/linux_4.14_gcc_10.3/target/x86_64-linux-gnu/bin/../lib/gcc/x86_64-linux-gnu/10.3.0\libgcc.a
LOAD c:/program files/dspace rcphil 2023-b/compiler/linux_4.14_gcc_10.3/target/x86_64-linux-gnu/bin/../lib/gcc/x86_64-linux-gnu/10.3.0/crtendS.o
LOAD c:/program files/dspace rcphil 2023-b/compiler/linux_4.14_gcc_10.3/target/x86_64-linux-gnu/bin/../../x86_64-linux-gnu/lib/crtn.o
                [!provide]                        PROVIDE (__executable_start = SEGMENT_START ("text-segment", 0x0))
                0x00000000000002a8                . = (SEGMENT_START ("text-segment", 0x0) + SIZEOF_HEADERS)

.interp         0x00000000000002a8       0x1c
 *(.interp)
 .interp        0x00000000000002a8       0x1c c:/program files/dspace rcphil 2023-b/compiler/linux_4.14_gcc_10.3/target/x86_64-linux-gnu/bin/../../x86_64-linux-gnu/lib/Scrt1.o

.note.gnu.build-id
                0x00000000000002c4       0x24
 *(.note.gnu.build-id)
 .note.gnu.build-id
                0x00000000000002c4       0x24 c:/program files/dspace rcphil 2023-b/compiler/linux_4.14_gcc_10.3/target/x86_64-linux-gnu/bin/../../x86_64-linux-gnu/lib/Scrt1.o

.note.ABI-tag   0x00000000000002e8       0x20
 .note.ABI-tag  0x00000000000002e8       0x20 c:/program files/dspace rcphil 2023-b/compiler/linux_4.14_gcc_10.3/target/x86_64-linux-gnu/bin/../../x86_64-linux-gnu/lib/Scrt1.o

.hash           0x0000000000000308      0x180
 *(.hash)
 .hash          0x0000000000000308      0x180 c:/program files/dspace rcphil 2023-b/compiler/linux_4.14_gcc_10.3/target/x86_64-linux-gnu/bin/../../x86_64-linux-gnu/lib/Scrt1.o

.gnu.hash       0x0000000000000488       0x24
 *(.gnu.hash)
 .gnu.hash      0x0000000000000488       0x24 c:/program files/dspace rcphil 2023-b/compiler/linux_4.14_gcc_10.3/target/x86_64-linux-gnu/bin/../../x86_64-linux-gnu/lib/Scrt1.o

.dynsym         0x00000000000004b0      0x558
 *(.dynsym)
 .dynsym        0x00000000000004b0      0x558 c:/program files/dspace rcphil 2023-b/compiler/linux_4.14_gcc_10.3/target/x86_64-linux-gnu/bin/../../x86_64-linux-gnu/lib/Scrt1.o

.dynstr         0x0000000000000a08      0x9ac
 *(.dynstr)
 .dynstr        0x0000000000000a08      0x9ac c:/program files/dspace rcphil 2023-b/compiler/linux_4.14_gcc_10.3/target/x86_64-linux-gnu/bin/../../x86_64-linux-gnu/lib/Scrt1.o

.gnu.version    0x00000000000013b4       0x72
 *(.gnu.version)
 .gnu.version   0x00000000000013b4       0x72 c:/program files/dspace rcphil 2023-b/compiler/linux_4.14_gcc_10.3/target/x86_64-linux-gnu/bin/../../x86_64-linux-gnu/lib/Scrt1.o

.gnu.version_d  0x0000000000001428        0x0
 *(.gnu.version_d)
 .gnu.version_d
                0x0000000000001428        0x0 c:/program files/dspace rcphil 2023-b/compiler/linux_4.14_gcc_10.3/target/x86_64-linux-gnu/bin/../../x86_64-linux-gnu/lib/Scrt1.o

.gnu.version_r  0x0000000000001428       0x70
 *(.gnu.version_r)
 .gnu.version_r
                0x0000000000001428       0x70 c:/program files/dspace rcphil 2023-b/compiler/linux_4.14_gcc_10.3/target/x86_64-linux-gnu/bin/../../x86_64-linux-gnu/lib/Scrt1.o

.rela.dyn       0x0000000000001498      0x828
 *(.rela.init)
 *(.rela.text .rela.text.* .rela.gnu.linkonce.t.*)
 .rela.text     0x0000000000001498        0x0 c:/program files/dspace rcphil 2023-b/compiler/linux_4.14_gcc_10.3/target/x86_64-linux-gnu/bin/../../x86_64-linux-gnu/lib/Scrt1.o
 *(.rela.fini)
 *(.rela.rodata .rela.rodata.* .rela.gnu.linkonce.r.*)
 *(.rela.data .rela.data.* .rela.gnu.linkonce.d.*)
 .rela.data.rel.ro
                0x0000000000001498        0x0 c:/program files/dspace rcphil 2023-b/compiler/linux_4.14_gcc_10.3/target/x86_64-linux-gnu/bin/../../x86_64-linux-gnu/lib/Scrt1.o
 .rela.data.rel.local
                0x0000000000001498       0x18 c:/program files/dspace rcphil 2023-b/compiler/linux_4.14_gcc_10.3/target/x86_64-linux-gnu/bin/../../x86_64-linux-gnu/lib/Scrt1.o
 .rela.data.rel.ro._ZTI18DsCApplicationMain
                0x00000000000014b0       0x48 c:/program files/dspace rcphil 2023-b/compiler/linux_4.14_gcc_10.3/target/x86_64-linux-gnu/bin/../../x86_64-linux-gnu/lib/Scrt1.o
 .rela.data.rel.ro._ZTV18DsCApplicationMain
                0x00000000000014f8       0xd8 c:/program files/dspace rcphil 2023-b/compiler/linux_4.14_gcc_10.3/target/x86_64-linux-gnu/bin/../../x86_64-linux-gnu/lib/Scrt1.o
 .rela.data.rel
                0x00000000000015d0       0xa8 c:/program files/dspace rcphil 2023-b/compiler/linux_4.14_gcc_10.3/target/x86_64-linux-gnu/bin/../../x86_64-linux-gnu/lib/Scrt1.o
 .rela.data.rel.local.DW.ref.__gxx_personality_v0
                0x0000000000001678       0x18 c:/program files/dspace rcphil 2023-b/compiler/linux_4.14_gcc_10.3/target/x86_64-linux-gnu/bin/../../x86_64-linux-gnu/lib/Scrt1.o
 .rela.data.rel.ro._ZTI24DsCRtosAlPeriodic_Task_1
                0x0000000000001690       0x48 c:/program files/dspace rcphil 2023-b/compiler/linux_4.14_gcc_10.3/target/x86_64-linux-gnu/bin/../../x86_64-linux-gnu/lib/Scrt1.o
 .rela.data.rel.ro._ZTV24DsCRtosAlPeriodic_Task_1
                0x00000000000016d8       0x78 c:/program files/dspace rcphil 2023-b/compiler/linux_4.14_gcc_10.3/target/x86_64-linux-gnu/bin/../../x86_64-linux-gnu/lib/Scrt1.o
 .rela.data.rel.ro.local
                0x0000000000001750       0x18 c:/program files/dspace rcphil 2023-b/compiler/linux_4.14_gcc_10.3/target/x86_64-linux-gnu/bin/../../x86_64-linux-gnu/lib/Scrt1.o
 *(.rela.tdata .rela.tdata.* .rela.gnu.linkonce.td.*)
 *(.rela.tbss .rela.tbss.* .rela.gnu.linkonce.tb.*)
 *(.rela.ctors)
 .rela.ctors    0x0000000000001768       0x60 c:/program files/dspace rcphil 2023-b/compiler/linux_4.14_gcc_10.3/target/x86_64-linux-gnu/bin/../../x86_64-linux-gnu/lib/Scrt1.o
 *(.rela.dtors)
 *(.rela.got)
 .rela.got      0x00000000000017c8      0x4e0 c:/program files/dspace rcphil 2023-b/compiler/linux_4.14_gcc_10.3/target/x86_64-linux-gnu/bin/../../x86_64-linux-gnu/lib/Scrt1.o
 *(.rela.bss .rela.bss.* .rela.gnu.linkonce.b.*)
 .rela.bss      0x0000000000001ca8        0x0 c:/program files/dspace rcphil 2023-b/compiler/linux_4.14_gcc_10.3/target/x86_64-linux-gnu/bin/../../x86_64-linux-gnu/lib/Scrt1.o
 *(.rela.ldata .rela.ldata.* .rela.gnu.linkonce.l.*)
 *(.rela.lbss .rela.lbss.* .rela.gnu.linkonce.lb.*)
 *(.rela.lrodata .rela.lrodata.* .rela.gnu.linkonce.lr.*)
 *(.rela.ifunc)
 .rela.ifunc    0x0000000000001ca8        0x0 c:/program files/dspace rcphil 2023-b/compiler/linux_4.14_gcc_10.3/target/x86_64-linux-gnu/bin/../../x86_64-linux-gnu/lib/Scrt1.o
 .rela.init_array
                0x0000000000001ca8       0x18 c:/program files/dspace rcphil 2023-b/compiler/linux_4.14_gcc_10.3/target/x86_64-linux-gnu/bin/../../x86_64-linux-gnu/lib/Scrt1.o
 .rela.eh_frame
                0x0000000000001cc0        0x0 c:/program files/dspace rcphil 2023-b/compiler/linux_4.14_gcc_10.3/target/x86_64-linux-gnu/bin/../../x86_64-linux-gnu/lib/Scrt1.o

.rela.plt       0x0000000000001cc0        0x0
 *(.rela.plt)
 .rela.plt      0x0000000000001cc0        0x0 c:/program files/dspace rcphil 2023-b/compiler/linux_4.14_gcc_10.3/target/x86_64-linux-gnu/bin/../../x86_64-linux-gnu/lib/Scrt1.o
 *(.rela.iplt)
                0x0000000000002000                . = ALIGN (CONSTANT (MAXPAGESIZE))

.init           0x0000000000002000       0x17
 *(SORT_NONE(.init))
 .init          0x0000000000002000       0x12 c:/program files/dspace rcphil 2023-b/compiler/linux_4.14_gcc_10.3/target/x86_64-linux-gnu/bin/../../x86_64-linux-gnu/lib/crti.o
                0x0000000000002000                _init
 .init          0x0000000000002012        0x5 c:/program files/dspace rcphil 2023-b/compiler/linux_4.14_gcc_10.3/target/x86_64-linux-gnu/bin/../../x86_64-linux-gnu/lib/crtn.o

.plt            0x0000000000002020       0x10
 *(.plt)
 .plt           0x0000000000002020       0x10 c:/program files/dspace rcphil 2023-b/compiler/linux_4.14_gcc_10.3/target/x86_64-linux-gnu/bin/../../x86_64-linux-gnu/lib/Scrt1.o
 *(.iplt)

.plt.got        0x0000000000002030        0x8
 *(.plt.got)
 .plt.got       0x0000000000002030        0x8 c:/program files/dspace rcphil 2023-b/compiler/linux_4.14_gcc_10.3/target/x86_64-linux-gnu/bin/../../x86_64-linux-gnu/lib/Scrt1.o
                0x0000000000002030                __cxa_finalize@@GLIBC_2.2.5

.plt.sec
 *(.plt.sec)

.text           0x0000000000002040     0x1521
 *(.text.unlikely .text.*_unlikely .text.unlikely.*)
 .text.unlikely
                0x0000000000002040       0x1a dssimengine_main.o64
 .text.unlikely
                0x000000000000205a       0x1a rtosal_task.o64
 *(.text.exit .text.exit.*)
 *(.text.startup .text.startup.*)
 *fill*         0x0000000000002074        0xc 
 .text.startup  0x0000000000002080       0x29 dssimengine_main.o64
                0x0000000000002080                _Z32__registerApplDsCApplicationMainv
 *fill*         0x00000000000020a9        0x7 
 .text.startup  0x00000000000020b0       0x12 rtosal_simengineap.o64
                0x00000000000020b0                _Z21__registerRTTMPConfigv
 *fill*         0x00000000000020c2        0xe 
 .text.startup  0x00000000000020d0       0x14 IOCode_Data.o64
                0x00000000000020d0                _Z31__registerResourceg_ResourceMapv
 *(.text.hot .text.hot.*)
 *(SORT_BY_NAME(.text.sorted.*))
 *(.text .stub .text.* .gnu.linkonce.t.*)
 *fill*         0x00000000000020e4        0xc 
 .text          0x00000000000020f0       0x2b c:/program files/dspace rcphil 2023-b/compiler/linux_4.14_gcc_10.3/target/x86_64-linux-gnu/bin/../../x86_64-linux-gnu/lib/Scrt1.o
                0x00000000000020f0                _start
 .text          0x000000000000211b        0x0 c:/program files/dspace rcphil 2023-b/compiler/linux_4.14_gcc_10.3/target/x86_64-linux-gnu/bin/../../x86_64-linux-gnu/lib/crti.o
 *fill*         0x000000000000211b        0x5 
 .text          0x0000000000002120      0x109 c:/program files/dspace rcphil 2023-b/compiler/linux_4.14_gcc_10.3/target/x86_64-linux-gnu/bin/../lib/gcc/x86_64-linux-gnu/10.3.0/crtbeginS.o
 *fill*         0x0000000000002229        0x7 
 .text          0x0000000000002230       0x48 mdladapter_mdlfunctions.o64
                0x0000000000002230                DspaceLedWithArduion_APTerminateSimulation
                0x0000000000002240                DspaceLedWithArduion_APLastApplStateStopped
                0x0000000000002260                DspaceLedWithArduion_APStopSimulation
                0x0000000000002270                DspaceLedWithArduion_APPrintMessage
 .text          0x0000000000002278        0x0 mdlCode_ap.o64
 .text          0x0000000000002278        0x0 data_in_ap.o64
 *fill*         0x0000000000002278        0x8 
 .text          0x0000000000002280       0x65 data_out_ap.o64
                0x0000000000002290                ap_write_DspaceLedWithArduion_DataOutport1_P1_S1
 *fill*         0x00000000000022e5        0xb 
 .text          0x00000000000022f0       0x10 fm_entry_ap.o64
                0x00000000000022f0                ap_entry_DspaceLedWithArduion_SIDRoot_TID0
 .text          0x0000000000002300       0x10 fm_exit_ap.o64
                0x0000000000002300                ap_exit_DspaceLedWithArduion_SIDRoot_TID0
 .text          0x0000000000002310      0x6d3 dssimengine_accesspoint.o64
                0x0000000000002310                ApSimEngineOnInitMdl
                0x0000000000002330                ApSimEngineOnStartMdl
                0x0000000000002350                ApSimEngineOnStopMdl
                0x0000000000002370                ApSimEngineOnTerminateMdl
                0x0000000000002380                ApSimEngineOnUnloadMdl
                0x00000000000023a0                ApSimEngineOnInitImc
                0x00000000000023c0                ApSimEngineOnStartImc
                0x00000000000023e0                ApSimEngineOnStopImc
                0x0000000000002400                ApSimEngineOnTerminateImc
                0x0000000000002420                ApSimEngineOnUnloadImc
                0x0000000000002440                ApSimEngineOnInitIoPreRtosInit
                0x00000000000024b0                ApSimEngineOnInitHwDiagnostics
                0x0000000000002620                ApSimEngineOnStopIo
                0x0000000000002640                ApSimEngineOnTerminateIo
                0x0000000000002660                ApSimEngineOnUnloadIo
                0x0000000000002680                ApSimEngineOnInitRtos
                0x00000000000026d0                ApSimEngineOnStartRtos
                0x00000000000026f0                ApSimEngineOnStopRtos
                0x0000000000002710                ApSimEngineOnStop
                0x0000000000002760                ApSimEngineOnTerminateRtos
                0x0000000000002780                ApSimEngineOnTerminate
                0x00000000000027d0                ApSimEngineOnUnloadRtos
                0x00000000000027f0                ApSimEngineOnUnload
                0x0000000000002840                ApSimEngineIdle
                0x0000000000002860                _Z22ApSimEngineRunTimeInitR16DsCErrorListPooli
                0x0000000000002880                ApSimEngineOnInitIoPostRtosInit
                0x00000000000028f0                ApSimEngineOnInit
                0x0000000000002950                ApSimEngineOnStartIo
                0x00000000000029a0                ApSimEngineOnStart
 *fill*         0x00000000000029e3        0xd 
 .text          0x00000000000029f0       0x57 dssimengine_api.o64
                0x00000000000029f0                _Z25SimEngineLastApplStateGetv
                0x0000000000002a00                _Z16SimEngineApplGetv
                0x0000000000002a10                _Z17SimEngineApplStopv
                0x0000000000002a30                _Z22SimEngineApplTerminatev
 *fill*         0x0000000000002a47        0x9 
 .text          0x0000000000002a50      0x187 dssimengine_main.o64
                0x0000000000002a50                destroyApplication
                0x0000000000002a70                getApplicationErrorList
                0x0000000000002a80                _ZN18DsCApplicationMainD1Ev
                0x0000000000002a80                _ZN18DsCApplicationMainD2Ev
                0x0000000000002ab0                _ZN18DsCApplicationMainD0Ev
                0x0000000000002ad0                _ZN18DsCApplicationMain6onInitER16DsCErrorListPool
                0x0000000000002af0                _ZN18DsCApplicationMain7onStartER16DsCErrorListPool
                0x0000000000002b10                _ZN18DsCApplicationMain6onStopER16DsCErrorListPool
                0x0000000000002b30                _ZN18DsCApplicationMain11onTerminateER16DsCErrorListPool
                0x0000000000002b50                _ZN18DsCApplicationMain8onUnloadER16DsCErrorListPool
                0x0000000000002b60                _ZN18DsCApplicationMain6onIdleER16DsCErrorListPool
                0x0000000000002b70                _ZN18DsCApplicationMainC2ER16DsCErrorListPool
                0x0000000000002b70                _ZN18DsCApplicationMainC1ER16DsCErrorListPool
                0x0000000000002ba0                createApplication
 *fill*         0x0000000000002bd7        0x9 
 .text          0x0000000000002be0      0x322 rtosal_task.o64
                0x0000000000002be0                _ZN24DsCRtosAlPeriodic_Task_1D1Ev
                0x0000000000002be0                _ZN24DsCRtosAlPeriodic_Task_1D2Ev
                0x0000000000002c00                _ZN24DsCRtosAlPeriodic_Task_1D0Ev
                0x0000000000002c20                _ZN24DsCRtosAlPeriodic_Task_15onRunER16DsCErrorListPool
                0x0000000000002c70                _ZN24DsCRtosAlPeriodic_Task_1C1ER16DsCErrorListPoolP14DsCApplicationPKcjjjjjjjP7DsCTaskj
                0x0000000000002c70                _ZN24DsCRtosAlPeriodic_Task_1C2ER16DsCErrorListPoolP14DsCApplicationPKcjjjjjjjP7DsCTaskj
                0x0000000000002cc0                _ZN24DsCRtosAlPeriodic_Task_16createER16DsCErrorListPoolP14DsCApplicationPKcjjjjjjjP7DsCTaskj
                0x0000000000002d70                _Z37RtosAlDefaultDeadlineViolationHandlerR16DsCErrorListPoolP7DsCTask
                0x0000000000002e10                _Z35RtosAlProfilerSourcesInitializationv
                0x0000000000002e20                _Z20RtosAlHandleOverrunsP7DsCTaski
                0x0000000000002ef0                _ZN24DsCRtosAlPeriodic_Task_19onOverrunER16DsCErrorListPool
 *fill*         0x0000000000002f02        0xe 
 .text          0x0000000000002f10       0x77 rtosal_taskap.o64
                0x0000000000002f10                RtosAlTask_01_TaskEntry
                0x0000000000002f20                RtosAlTask_01_TaskExit
 *fill*         0x0000000000002f87        0x9 
 .text          0x0000000000002f90      0x24b rtosal_simengineap.o64
                0x0000000000002f90                _Z12RtosAlOnInitR16DsCErrorListPool
                0x0000000000003060                _Z13RtosAlOnStartR16DsCErrorListPool
 .text          0x00000000000031db        0x0 IOCode_Data.o64
 *fill*         0x00000000000031db        0x5 
 .text          0x00000000000031e0      0x108 dssimengine_accesspoint_Voltage_Out.o64
                0x00000000000031e0                _Z49ApSimEngineRunTimeInit_ctlcBODY_0_Voltage_Out_i1_R16DsCErrorListPool
                0x0000000000003200                _Z47ApSimEngineOnStartIo_ctlcBODY_0_Voltage_Out_i1_R16DsCErrorListPool
                0x0000000000003220                _Z46ApSimEngineOnStopIo_ctlcBODY_0_Voltage_Out_i1_R16DsCErrorListPool
                0x0000000000003240                _Z57ApSimEngineOnInitIoPreRtosInit_ctlcBODY_2_Voltage_Out_i1_R16DsCErrorListPoolP14DsCApplication
                0x0000000000003260                _Z58ApSimEngineOnInitIoPostRtosInit_ctlcBODY_0_Voltage_Out_i1_R16DsCErrorListPool
 *fill*         0x00000000000032e8        0x8 
 .text          0x00000000000032f0      0x129 C:\Users\MURTI\AppData\Local\Temp\dSPACE\CfgDesk\AppCache\2\Build\DspaceLedWithArduion\Compile\DspaceLedWithArduion\DspaceLedWithArduion.a(DspaceLedWithArduion_dsrtmdlfcn.o64)
                0x00000000000032f0                DspaceLedWithArduion_DSRTCheckForErrorStatus
                0x0000000000003340                DspaceLedWithArduion_DSRTInitMdl
                0x0000000000003370                DspaceLedWithArduion_DSRTStartMdl
                0x00000000000033a0                DspaceLedWithArduion_DSRTStopMdl
                0x00000000000033c0                DspaceLedWithArduion_DSRTCheckForSimulationStopCondition
 *fill*         0x0000000000003419        0x7 
 .text          0x0000000000003420       0x16 C:\Users\MURTI\AppData\Local\Temp\dSPACE\CfgDesk\AppCache\2\Build\DspaceLedWithArduion\Compile\DspaceLedWithArduion\DspaceLedWithArduion.a(DspaceLedWithArduion_dsrttf.o64)
                0x0000000000003420                DspaceLedWithArduion_DSRTMdlOutputs0
                0x0000000000003430                DspaceLedWithArduion_DSRTMdlUpdate0
 *fill*         0x0000000000003436        0xa 
 .text          0x0000000000003440       0x71 C:\Users\MURTI\AppData\Local\Temp\dSPACE\CfgDesk\AppCache\2\Build\DspaceLedWithArduion\Compile\DspaceLedWithArduion\DspaceLedWithArduion.a(DspaceLedWithArduion.o64)
                0x0000000000003440                DspaceLedWithArduion_output
                0x0000000000003480                DspaceLedWithArduion_update
                0x0000000000003490                DspaceLedWithArduion_initialize
                0x00000000000034b0                DspaceLedWithArduion_terminate
 .text          0x00000000000034b1        0x0 C:\Users\MURTI\AppData\Local\Temp\dSPACE\CfgDesk\AppCache\2\Build\DspaceLedWithArduion\Compile\DspaceLedWithArduion\DspaceLedWithArduion.a(DspaceLedWithArduion_data.o64)
 *fill*         0x00000000000034b1        0xf 
 .text          0x00000000000034c0       0x3c C:\Users\MURTI\AppData\Local\Temp\dSPACE\CfgDesk\AppCache\2\Build\DspaceLedWithArduion\Compile\DspaceLedWithArduion\DspaceLedWithArduion.a(DspaceLedWithArduion_dsrtvdf.o64)
                0x00000000000034f0                DspaceLedWithArduion_rti_init_trc_pointers
 *fill*         0x00000000000034fc        0x4 
 .text          0x0000000000003500       0x61 C:\Program Files\dSPACE RCPHIL 2023-B\Compiler\Linux_4.14_GCC_10.3\target\x86_64-linux-gnu\lib\libc_nonshared.a(elf-init.oS)
                0x0000000000003500                __libc_csu_init
                0x0000000000003560                __libc_csu_fini
 .text          0x0000000000003561        0x0 c:/program files/dspace rcphil 2023-b/compiler/linux_4.14_gcc_10.3/target/x86_64-linux-gnu/bin/../lib/gcc/x86_64-linux-gnu/10.3.0/crtendS.o
 .text          0x0000000000003561        0x0 c:/program files/dspace rcphil 2023-b/compiler/linux_4.14_gcc_10.3/target/x86_64-linux-gnu/bin/../../x86_64-linux-gnu/lib/crtn.o
 *(.gnu.warning)

.fini           0x0000000000003564        0xe
 *(SORT_NONE(.fini))
 .fini          0x0000000000003564        0x4 c:/program files/dspace rcphil 2023-b/compiler/linux_4.14_gcc_10.3/target/x86_64-linux-gnu/bin/../../x86_64-linux-gnu/lib/crti.o
                0x0000000000003564                _fini
 .fini          0x0000000000003568        0x5 c:/program files/dspace rcphil 2023-b/compiler/linux_4.14_gcc_10.3/target/x86_64-linux-gnu/bin/../lib/gcc/x86_64-linux-gnu/10.3.0/crtbeginS.o
 .fini          0x000000000000356d        0x5 c:/program files/dspace rcphil 2023-b/compiler/linux_4.14_gcc_10.3/target/x86_64-linux-gnu/bin/../../x86_64-linux-gnu/lib/crtn.o
                [!provide]                        PROVIDE (__etext = .)
                [!provide]                        PROVIDE (_etext = .)
                [!provide]                        PROVIDE (etext = .)
                0x0000000000004000                . = ALIGN (CONSTANT (MAXPAGESIZE))
                0x0000000000004000                . = SEGMENT_START ("rodata-segment", (ALIGN (CONSTANT (MAXPAGESIZE)) + (. & (CONSTANT (MAXPAGESIZE) - 0x1))))

.rodata         0x0000000000004000      0x2bb
 *(.rodata .rodata.* .gnu.linkonce.r.*)
 .rodata.cst4   0x0000000000004000        0x4 c:/program files/dspace rcphil 2023-b/compiler/linux_4.14_gcc_10.3/target/x86_64-linux-gnu/bin/../../x86_64-linux-gnu/lib/Scrt1.o
                0x0000000000004000                _IO_stdin_used
 *fill*         0x0000000000004004        0x4 
 .rodata        0x0000000000004008        0x8 dssimengine_accesspoint.o64
 .rodata._ZTS18DsCApplicationMain
                0x0000000000004010       0x15 dssimengine_main.o64
                0x0000000000004010                _ZTS18DsCApplicationMain
 .rodata.str1.1
                0x0000000000004025       0x2a dssimengine_main.o64
 .rodata.str1.1
                0x000000000000404f       0x3f rtosal_task.o64
 *fill*         0x000000000000408e        0x2 
 .rodata.str1.8
                0x0000000000004090       0xee rtosal_task.o64
 *fill*         0x000000000000417e        0x2 
 .rodata._ZTS24DsCRtosAlPeriodic_Task_1
                0x0000000000004180       0x1b rtosal_task.o64
                0x0000000000004180                _ZTS24DsCRtosAlPeriodic_Task_1
 *fill*         0x000000000000419b        0x5 
 .rodata.cst8   0x00000000000041a0        0x8 rtosal_taskap.o64
 .rodata.str1.8
                0x00000000000041a8       0x62 rtosal_simengineap.o64
 .rodata.str1.1
                0x000000000000420a       0x44 rtosal_simengineap.o64
 *fill*         0x000000000000424e        0x2 
 .rodata.cst8   0x0000000000004250        0x8 rtosal_simengineap.o64
                                         0x10 (size before relaxing)
 .rodata.str1.1
                0x0000000000004258        0xe IOCode_Data.o64
 .rodata.str1.1
                0x0000000000004266       0x10 dssimengine_accesspoint_Voltage_Out.o64
 .rodata.str1.1
                0x0000000000004276       0x14 C:\Users\MURTI\AppData\Local\Temp\dSPACE\CfgDesk\AppCache\2\Build\DspaceLedWithArduion\Compile\DspaceLedWithArduion\DspaceLedWithArduion.a(DspaceLedWithArduion_dsrtmdlfcn.o64)
 *fill*         0x000000000000428a        0x6 
 .rodata.str1.8
                0x0000000000004290       0x2b C:\Users\MURTI\AppData\Local\Temp\dSPACE\CfgDesk\AppCache\2\Build\DspaceLedWithArduion\Compile\DspaceLedWithArduion\DspaceLedWithArduion.a(DspaceLedWithArduion_dsrtmdlfcn.o64)

.rodata1
 *(.rodata1)

.eh_frame_hdr   0x00000000000042bc      0x304
 *(.eh_frame_hdr)
 .eh_frame_hdr  0x00000000000042bc      0x304 c:/program files/dspace rcphil 2023-b/compiler/linux_4.14_gcc_10.3/target/x86_64-linux-gnu/bin/../../x86_64-linux-gnu/lib/Scrt1.o
                0x00000000000042bc                __GNU_EH_FRAME_HDR
 *(.eh_frame_entry .eh_frame_entry.*)

.eh_frame       0x00000000000045c0      0xc10
 *(.eh_frame)
 .eh_frame      0x00000000000045c0       0x30 c:/program files/dspace rcphil 2023-b/compiler/linux_4.14_gcc_10.3/target/x86_64-linux-gnu/bin/../../x86_64-linux-gnu/lib/Scrt1.o
                                         0x2c (size before relaxing)
 *fill*         0x00000000000045f0        0x0 
 .eh_frame      0x00000000000045f0       0x40 c:/program files/dspace rcphil 2023-b/compiler/linux_4.14_gcc_10.3/target/x86_64-linux-gnu/bin/../../x86_64-linux-gnu/lib/Scrt1.o
 .eh_frame      0x0000000000004630       0x18 c:/program files/dspace rcphil 2023-b/compiler/linux_4.14_gcc_10.3/target/x86_64-linux-gnu/bin/../../x86_64-linux-gnu/lib/Scrt1.o
                                         0x30 (size before relaxing)
 .eh_frame      0x0000000000004648       0x58 mdladapter_mdlfunctions.o64
                                         0x70 (size before relaxing)
 .eh_frame      0x00000000000046a0       0x28 data_out_ap.o64
                                         0x40 (size before relaxing)
 .eh_frame      0x00000000000046c8       0x18 fm_entry_ap.o64
                                         0x30 (size before relaxing)
 .eh_frame      0x00000000000046e0       0x18 fm_exit_ap.o64
                                         0x30 (size before relaxing)
 .eh_frame      0x00000000000046f8      0x3a0 dssimengine_accesspoint.o64
                                        0x3b8 (size before relaxing)
 .eh_frame      0x0000000000004a98       0x58 dssimengine_api.o64
                                         0x70 (size before relaxing)
 .eh_frame      0x0000000000004af0      0x1b8 dssimengine_main.o64
                                        0x1d0 (size before relaxing)
 .eh_frame      0x0000000000004ca8      0x1e0 rtosal_task.o64
                                        0x218 (size before relaxing)
 .eh_frame      0x0000000000004e88       0x30 rtosal_taskap.o64
                                         0x48 (size before relaxing)
 .eh_frame      0x0000000000004eb8       0xb8 rtosal_simengineap.o64
                                         0xd0 (size before relaxing)
 .eh_frame      0x0000000000004f70       0x18 IOCode_Data.o64
                                         0x30 (size before relaxing)
 .eh_frame      0x0000000000004f88       0x80 dssimengine_accesspoint_Voltage_Out.o64
                                         0x98 (size before relaxing)
 .eh_frame      0x0000000000005008       0xa8 C:\Users\MURTI\AppData\Local\Temp\dSPACE\CfgDesk\AppCache\2\Build\DspaceLedWithArduion\Compile\DspaceLedWithArduion\DspaceLedWithArduion.a(DspaceLedWithArduion_dsrtmdlfcn.o64)
                                         0xc0 (size before relaxing)
 .eh_frame      0x00000000000050b0       0x28 C:\Users\MURTI\AppData\Local\Temp\dSPACE\CfgDesk\AppCache\2\Build\DspaceLedWithArduion\Compile\DspaceLedWithArduion\DspaceLedWithArduion.a(DspaceLedWithArduion_dsrttf.o64)
                                         0x40 (size before relaxing)
 .eh_frame      0x00000000000050d8       0x58 C:\Users\MURTI\AppData\Local\Temp\dSPACE\CfgDesk\AppCache\2\Build\DspaceLedWithArduion\Compile\DspaceLedWithArduion\DspaceLedWithArduion.a(DspaceLedWithArduion.o64)
                                         0x70 (size before relaxing)
 .eh_frame      0x0000000000005130       0x40 C:\Users\MURTI\AppData\Local\Temp\dSPACE\CfgDesk\AppCache\2\Build\DspaceLedWithArduion\Compile\DspaceLedWithArduion\DspaceLedWithArduion.a(DspaceLedWithArduion_dsrtvdf.o64)
                                         0x58 (size before relaxing)
 .eh_frame      0x0000000000005170       0x5c C:\Program Files\dSPACE RCPHIL 2023-B\Compiler\Linux_4.14_GCC_10.3\target\x86_64-linux-gnu\lib\libc_nonshared.a(elf-init.oS)
                                         0x78 (size before relaxing)
 .eh_frame      0x00000000000051cc        0x4 c:/program files/dspace rcphil 2023-b/compiler/linux_4.14_gcc_10.3/target/x86_64-linux-gnu/bin/../lib/gcc/x86_64-linux-gnu/10.3.0/crtendS.o
 *(.eh_frame.*)

.gcc_except_table
                0x00000000000051d0       0x2a
 *(.gcc_except_table .gcc_except_table.*)
 .gcc_except_table
                0x00000000000051d0       0x14 dssimengine_main.o64
 .gcc_except_table
                0x00000000000051e4       0x16 rtosal_task.o64

.gnu_extab
 *(.gnu_extab*)

.exception_ranges
 *(.exception_ranges*)
                0x0000000000006b00                . = DATA_SEGMENT_ALIGN (CONSTANT (MAXPAGESIZE), CONSTANT (COMMONPAGESIZE))

.eh_frame
 *(.eh_frame)
 *(.eh_frame.*)

.gnu_extab
 *(.gnu_extab)

.gcc_except_table
 *(.gcc_except_table .gcc_except_table.*)

.exception_ranges
 *(.exception_ranges*)

.tdata          0x0000000000006b00        0x0
                [!provide]                        PROVIDE (__tdata_start = .)
 *(.tdata .tdata.* .gnu.linkonce.td.*)

.tbss
 *(.tbss .tbss.* .gnu.linkonce.tb.*)
 *(.tcommon)

.preinit_array  0x0000000000006b00        0x0
                [!provide]                        PROVIDE (__preinit_array_start = .)
 *(.preinit_array)
                [!provide]                        PROVIDE (__preinit_array_end = .)

.init_array     0x0000000000006b00       0x28
                0x0000000000006b00                PROVIDE (__init_array_start = .)
 *(SORT_BY_INIT_PRIORITY(.init_array.*) SORT_BY_INIT_PRIORITY(.ctors.*))
 *(.init_array EXCLUDE_FILE(*crtend?.o *crtend.o *crtbegin?.o *crtbegin.o) .ctors)
 .init_array    0x0000000000006b00        0x8 c:/program files/dspace rcphil 2023-b/compiler/linux_4.14_gcc_10.3/target/x86_64-linux-gnu/bin/../lib/gcc/x86_64-linux-gnu/10.3.0/crtbeginS.o
 .ctors         0x0000000000006b08       0x10 dssimengine_main.o64
 .ctors         0x0000000000006b18        0x8 rtosal_simengineap.o64
 .ctors         0x0000000000006b20        0x8 IOCode_Data.o64
                0x0000000000006b28                PROVIDE (__init_array_end = .)

.fini_array     0x0000000000006b28        0x0
                [!provide]                        PROVIDE (__fini_array_start = .)
 *(SORT_BY_INIT_PRIORITY(.fini_array.*) SORT_BY_INIT_PRIORITY(.dtors.*))
 *(.fini_array EXCLUDE_FILE(*crtend?.o *crtend.o *crtbegin?.o *crtbegin.o) .dtors)
                [!provide]                        PROVIDE (__fini_array_end = .)

.ctors          0x0000000000006b28       0x10
 *crtbegin.o(.ctors)
 *crtbegin?.o(.ctors)
 .ctors         0x0000000000006b28        0x8 c:/program files/dspace rcphil 2023-b/compiler/linux_4.14_gcc_10.3/target/x86_64-linux-gnu/bin/../lib/gcc/x86_64-linux-gnu/10.3.0/crtbeginS.o
 *(EXCLUDE_FILE(*crtend?.o *crtend.o) .ctors)
 *(SORT_BY_NAME(.ctors.*))
 *(.ctors)
 .ctors         0x0000000000006b30        0x8 c:/program files/dspace rcphil 2023-b/compiler/linux_4.14_gcc_10.3/target/x86_64-linux-gnu/bin/../lib/gcc/x86_64-linux-gnu/10.3.0/crtendS.o

.dtors          0x0000000000006b38       0x10
 *crtbegin.o(.dtors)
 *crtbegin?.o(.dtors)
 .dtors         0x0000000000006b38        0x8 c:/program files/dspace rcphil 2023-b/compiler/linux_4.14_gcc_10.3/target/x86_64-linux-gnu/bin/../lib/gcc/x86_64-linux-gnu/10.3.0/crtbeginS.o
 *(EXCLUDE_FILE(*crtend?.o *crtend.o) .dtors)
 *(SORT_BY_NAME(.dtors.*))
 *(.dtors)
 .dtors         0x0000000000006b40        0x8 c:/program files/dspace rcphil 2023-b/compiler/linux_4.14_gcc_10.3/target/x86_64-linux-gnu/bin/../lib/gcc/x86_64-linux-gnu/10.3.0/crtendS.o
                0x0000000000006b40                __DTOR_END__

.jcr
 *(.jcr)

.data.rel.ro    0x0000000000006b48       0xb8
 *(.data.rel.ro.local* .gnu.linkonce.d.rel.ro.local.*)
 .data.rel.ro.local
                0x0000000000006b48        0x8 C:\Users\MURTI\AppData\Local\Temp\dSPACE\CfgDesk\AppCache\2\Build\DspaceLedWithArduion\Compile\DspaceLedWithArduion\DspaceLedWithArduion.a(DspaceLedWithArduion.o64)
                0x0000000000006b48                DspaceLedWithArduion_M
 *(.data.rel.ro .data.rel.ro.* .gnu.linkonce.d.rel.ro.*)
 .data.rel.ro   0x0000000000006b50        0x0 c:/program files/dspace rcphil 2023-b/compiler/linux_4.14_gcc_10.3/target/x86_64-linux-gnu/bin/../../x86_64-linux-gnu/lib/Scrt1.o
 .data.rel.ro._ZTI18DsCApplicationMain
                0x0000000000006b50       0x18 dssimengine_main.o64
                0x0000000000006b50                _ZTI18DsCApplicationMain
 .data.rel.ro._ZTV18DsCApplicationMain
                0x0000000000006b68       0x50 dssimengine_main.o64
                0x0000000000006b68                _ZTV18DsCApplicationMain
 .data.rel.ro._ZTI24DsCRtosAlPeriodic_Task_1
                0x0000000000006bb8       0x18 rtosal_task.o64
                0x0000000000006bb8                _ZTI24DsCRtosAlPeriodic_Task_1
 .data.rel.ro._ZTV24DsCRtosAlPeriodic_Task_1
                0x0000000000006bd0       0x30 rtosal_task.o64
                0x0000000000006bd0                _ZTV24DsCRtosAlPeriodic_Task_1

.dynamic        0x0000000000006c00      0x260
 *(.dynamic)
 .dynamic       0x0000000000006c00      0x260 c:/program files/dspace rcphil 2023-b/compiler/linux_4.14_gcc_10.3/target/x86_64-linux-gnu/bin/../../x86_64-linux-gnu/lib/Scrt1.o
                0x0000000000006c00                _DYNAMIC

.got            0x0000000000006e60      0x1a0
 *(.got)
 .got           0x0000000000006e60      0x1a0 c:/program files/dspace rcphil 2023-b/compiler/linux_4.14_gcc_10.3/target/x86_64-linux-gnu/bin/../../x86_64-linux-gnu/lib/Scrt1.o
 *(.igot)
                0x0000000000007fe8                . = DATA_SEGMENT_RELRO_END (., (SIZEOF (.got.plt) >= 0x18)?0x18:0x0)

.got.plt        0x0000000000007000       0x18
 *(.got.plt)
 .got.plt       0x0000000000007000       0x18 c:/program files/dspace rcphil 2023-b/compiler/linux_4.14_gcc_10.3/target/x86_64-linux-gnu/bin/../../x86_64-linux-gnu/lib/Scrt1.o
                0x0000000000007000                _GLOBAL_OFFSET_TABLE_
 *(.igot.plt)

.data           0x0000000000007020       0xf0
 *(.data .data.* .gnu.linkonce.d.*)
 .data          0x0000000000007020        0x4 c:/program files/dspace rcphil 2023-b/compiler/linux_4.14_gcc_10.3/target/x86_64-linux-gnu/bin/../../x86_64-linux-gnu/lib/Scrt1.o
                0x0000000000007020                __data_start
                0x0000000000007020                data_start
 .data          0x0000000000007024        0x0 c:/program files/dspace rcphil 2023-b/compiler/linux_4.14_gcc_10.3/target/x86_64-linux-gnu/bin/../../x86_64-linux-gnu/lib/crti.o
 .data          0x0000000000007024        0x0 c:/program files/dspace rcphil 2023-b/compiler/linux_4.14_gcc_10.3/target/x86_64-linux-gnu/bin/../lib/gcc/x86_64-linux-gnu/10.3.0/crtbeginS.o
 *fill*         0x0000000000007024        0x4 
 .data.rel.local
                0x0000000000007028        0x8 c:/program files/dspace rcphil 2023-b/compiler/linux_4.14_gcc_10.3/target/x86_64-linux-gnu/bin/../lib/gcc/x86_64-linux-gnu/10.3.0/crtbeginS.o
                0x0000000000007028                __dso_handle
 .data          0x0000000000007030        0x0 mdladapter_mdlfunctions.o64
 .data          0x0000000000007030        0x0 mdlCode_ap.o64
 .data          0x0000000000007030        0x0 data_in_ap.o64
 .data          0x0000000000007030        0x0 data_out_ap.o64
 .data          0x0000000000007030        0x0 fm_entry_ap.o64
 .data          0x0000000000007030        0x0 fm_exit_ap.o64
 .data          0x0000000000007030        0x1 dssimengine_accesspoint.o64
                0x0000000000007030                isFirstSimulation
 .data          0x0000000000007031        0x0 dssimengine_api.o64
 *fill*         0x0000000000007031        0x3 
 .data          0x0000000000007034        0xc dssimengine_main.o64
                0x0000000000007034                DsFwIfVersion
                0x0000000000007038                DsApplIfVersion
                0x000000000000703c                SimEngineLastApplState
 .data.rel      0x0000000000007040       0x58 dssimengine_main.o64
                0x0000000000007040                ApplInfoDsCApplicationMain
 .data.rel.local.DW.ref.__gxx_personality_v0
                0x0000000000007098        0x8 dssimengine_main.o64
                0x0000000000007098                DW.ref.__gxx_personality_v0
 .data          0x00000000000070a0        0x0 rtosal_task.o64
 .data          0x00000000000070a0        0x0 rtosal_taskap.o64
 .data          0x00000000000070a0       0x10 rtosal_simengineap.o64
                0x00000000000070a0                ScalingFactor
                0x00000000000070a8                g_dsrtt_comm_enabled
 *fill*         0x00000000000070b0       0x10 
 .data          0x00000000000070c0       0x34 IOCode_Data.o64
                0x00000000000070c0                g_ResourceMap
 .data          0x00000000000070f4        0x0 dssimengine_accesspoint_Voltage_Out.o64
 .data          0x00000000000070f4        0x0 C:\Users\MURTI\AppData\Local\Temp\dSPACE\CfgDesk\AppCache\2\Build\DspaceLedWithArduion\Compile\DspaceLedWithArduion\DspaceLedWithArduion.a(DspaceLedWithArduion_dsrtmdlfcn.o64)
 .data          0x00000000000070f4        0x0 C:\Users\MURTI\AppData\Local\Temp\dSPACE\CfgDesk\AppCache\2\Build\DspaceLedWithArduion\Compile\DspaceLedWithArduion\DspaceLedWithArduion.a(DspaceLedWithArduion_dsrttf.o64)
 .data          0x00000000000070f4        0x0 C:\Users\MURTI\AppData\Local\Temp\dSPACE\CfgDesk\AppCache\2\Build\DspaceLedWithArduion\Compile\DspaceLedWithArduion\DspaceLedWithArduion.a(DspaceLedWithArduion.o64)
 *fill*         0x00000000000070f4        0xc 
 .data          0x0000000000007100       0x10 C:\Users\MURTI\AppData\Local\Temp\dSPACE\CfgDesk\AppCache\2\Build\DspaceLedWithArduion\Compile\DspaceLedWithArduion\DspaceLedWithArduion.a(DspaceLedWithArduion_data.o64)
                0x0000000000007100                DspaceLedWithArduion_P
 .data          0x0000000000007110        0x0 C:\Users\MURTI\AppData\Local\Temp\dSPACE\CfgDesk\AppCache\2\Build\DspaceLedWithArduion\Compile\DspaceLedWithArduion\DspaceLedWithArduion.a(DspaceLedWithArduion_dsrtvdf.o64)
 .data          0x0000000000007110        0x0 C:\Program Files\dSPACE RCPHIL 2023-B\Compiler\Linux_4.14_GCC_10.3\target\x86_64-linux-gnu\lib\libc_nonshared.a(elf-init.oS)
 .data          0x0000000000007110        0x0 c:/program files/dspace rcphil 2023-b/compiler/linux_4.14_gcc_10.3/target/x86_64-linux-gnu/bin/../lib/gcc/x86_64-linux-gnu/10.3.0/crtendS.o
 .data          0x0000000000007110        0x0 c:/program files/dspace rcphil 2023-b/compiler/linux_4.14_gcc_10.3/target/x86_64-linux-gnu/bin/../../x86_64-linux-gnu/lib/crtn.o

.tm_clone_table
                0x0000000000007110        0x0
 .tm_clone_table
                0x0000000000007110        0x0 c:/program files/dspace rcphil 2023-b/compiler/linux_4.14_gcc_10.3/target/x86_64-linux-gnu/bin/../lib/gcc/x86_64-linux-gnu/10.3.0/crtbeginS.o
 .tm_clone_table
                0x0000000000007110        0x0 c:/program files/dspace rcphil 2023-b/compiler/linux_4.14_gcc_10.3/target/x86_64-linux-gnu/bin/../lib/gcc/x86_64-linux-gnu/10.3.0/crtendS.o

.data1
 *(.data1)
                0x0000000000007110                _edata = .
                [!provide]                        PROVIDE (edata = .)
                0x0000000000007110                . = .
                0x0000000000007110                __bss_start = .

.bss            0x0000000000007120      0x190
 *(.dynbss)
 .dynbss        0x0000000000007120        0x0 c:/program files/dspace rcphil 2023-b/compiler/linux_4.14_gcc_10.3/target/x86_64-linux-gnu/bin/../../x86_64-linux-gnu/lib/Scrt1.o
 *(.bss .bss.* .gnu.linkonce.b.*)
 .bss           0x0000000000007120        0x0 c:/program files/dspace rcphil 2023-b/compiler/linux_4.14_gcc_10.3/target/x86_64-linux-gnu/bin/../../x86_64-linux-gnu/lib/Scrt1.o
 .bss           0x0000000000007120        0x0 c:/program files/dspace rcphil 2023-b/compiler/linux_4.14_gcc_10.3/target/x86_64-linux-gnu/bin/../../x86_64-linux-gnu/lib/crti.o
 .bss           0x0000000000007120       0x10 c:/program files/dspace rcphil 2023-b/compiler/linux_4.14_gcc_10.3/target/x86_64-linux-gnu/bin/../lib/gcc/x86_64-linux-gnu/10.3.0/crtbeginS.o
 .bss           0x0000000000007130        0x0 mdladapter_mdlfunctions.o64
 .bss           0x0000000000007130        0x0 mdlCode_ap.o64
 .bss           0x0000000000007130        0x0 data_in_ap.o64
 .bss           0x0000000000007130        0x0 data_out_ap.o64
 .bss           0x0000000000007130        0x0 fm_entry_ap.o64
 .bss           0x0000000000007130        0x0 fm_exit_ap.o64
 .bss           0x0000000000007130       0x88 dssimengine_accesspoint.o64
                0x0000000000007130                xilApiEesPortTrigger
                0x0000000000007138                xilApiEesPortFlags
                0x0000000000007140                pXilApiEesPortFsxErrorSwitching
                0x0000000000007148                pXilApiEesPortFsxErrorActivated
                0x0000000000007150                pXilApiEesPortFsxActiveErrorSet
                0x0000000000007158                pXilApiEesPortErrorSwitching
                0x0000000000007160                pXilApiEesPortErrorActivated
                0x0000000000007168                pXilApiEesPortActiveErrorSet
                0x0000000000007170                pFailureSimulationRelaySwitching
                0x0000000000007178                pFailureSimulationSequenceCount
                0x0000000000007180                pFailureSimulationFailureActivated
                0x0000000000007188                pFailureSimulationFailureConfigured
                0x0000000000007190                pFailureSimulationClientConnected
                0x0000000000007198                pAppMaximumMemoryUsage
                0x00000000000071a0                pAppCurrentMemoryUsage
                0x00000000000071a8                pFuseRestoreRequest
                0x00000000000071b0                pFuseActualStatus
 .bss           0x00000000000071b8        0x0 dssimengine_api.o64
 .bss           0x00000000000071b8       0x10 dssimengine_main.o64
                0x00000000000071b8                _ZN18DsCApplicationMain11s_pInstanceE
                0x00000000000071c0                ErrorList
 .bss           0x00000000000071c8       0x28 rtosal_task.o64
                0x00000000000071c8                StepCounter_Periodic_Task_1
                0x00000000000071d0                RtosAlTaskSimTime_Periodic_Task_1
                0x00000000000071d8                pRtosAlTimer_Periodic_Task_1
                0x00000000000071e0                pRtosAlPeriodic_Task_1
                0x00000000000071e8                _ZN24DsCRtosAlPeriodic_Task_111m_pInstanceE
 .bss           0x00000000000071f0        0x0 rtosal_taskap.o64
 *fill*         0x00000000000071f0       0x10 
 .bss           0x0000000000007200       0x58 rtosal_simengineap.o64
                0x0000000000007200                Periodic_Task_1Vars_OvnCounter
                0x0000000000007200                Periodic_Task_1Vars
                0x0000000000007208                Periodic_Task_1Vars_TurnaroundTime
                0x0000000000007210                Periodic_Task_1Vars_Calls
                0x0000000000007218                Periodic_Task_1Vars_QueueCounter
                0x0000000000007220                Periodic_Task_1Vars_AbsoluteTime
                0x0000000000007250                ScaledTimeInterval
 .bss           0x0000000000007258       0x30 IOCode_Data.o64
                0x0000000000007258                dspaceledwitharduion_fcnModule_SIDRoot_TID0
                0x0000000000007260                voltage_Out_1_Voltage_TA_Replacevalue
                0x0000000000007268                voltage_Out_1_Voltage_TA_Switchvalue
                0x0000000000007270                voltage_Out_1_Voltage_IO_Signal
                0x0000000000007278                voltage_Out_1_Voltage_MDL_Signal
                0x0000000000007280                pVoltage_Out_1_DriverHandle
 .bss           0x0000000000007288        0x0 dssimengine_accesspoint_Voltage_Out.o64
 .bss           0x0000000000007288        0x4 C:\Users\MURTI\AppData\Local\Temp\dSPACE\CfgDesk\AppCache\2\Build\DspaceLedWithArduion\Compile\DspaceLedWithArduion\DspaceLedWithArduion.a(DspaceLedWithArduion_dsrtmdlfcn.o64)
                0x0000000000007288                DSRTStopSimulation
 .bss           0x000000000000728c        0x0 C:\Users\MURTI\AppData\Local\Temp\dSPACE\CfgDesk\AppCache\2\Build\DspaceLedWithArduion\Compile\DspaceLedWithArduion\DspaceLedWithArduion.a(DspaceLedWithArduion_dsrttf.o64)
 *fill*         0x000000000000728c        0x4 
 .bss           0x0000000000007290       0x10 C:\Users\MURTI\AppData\Local\Temp\dSPACE\CfgDesk\AppCache\2\Build\DspaceLedWithArduion\Compile\DspaceLedWithArduion\DspaceLedWithArduion.a(DspaceLedWithArduion.o64)
                0x0000000000007290                DspaceLedWithArduion_B
 .bss           0x00000000000072a0        0x0 C:\Users\MURTI\AppData\Local\Temp\dSPACE\CfgDesk\AppCache\2\Build\DspaceLedWithArduion\Compile\DspaceLedWithArduion\DspaceLedWithArduion.a(DspaceLedWithArduion_data.o64)
 .bss           0x00000000000072a0       0x10 C:\Users\MURTI\AppData\Local\Temp\dSPACE\CfgDesk\AppCache\2\Build\DspaceLedWithArduion\Compile\DspaceLedWithArduion\DspaceLedWithArduion.a(DspaceLedWithArduion_dsrtvdf.o64)
                0x00000000000072a0                p_0_DspaceLedWithArduion_real_T_0
                0x00000000000072a8                p_1_DspaceLedWithArduion_real_T_0
 .bss           0x00000000000072b0        0x0 C:\Program Files\dSPACE RCPHIL 2023-B\Compiler\Linux_4.14_GCC_10.3\target\x86_64-linux-gnu\lib\libc_nonshared.a(elf-init.oS)
 .bss           0x00000000000072b0        0x0 c:/program files/dspace rcphil 2023-b/compiler/linux_4.14_gcc_10.3/target/x86_64-linux-gnu/bin/../lib/gcc/x86_64-linux-gnu/10.3.0/crtendS.o
 .bss           0x00000000000072b0        0x0 c:/program files/dspace rcphil 2023-b/compiler/linux_4.14_gcc_10.3/target/x86_64-linux-gnu/bin/../../x86_64-linux-gnu/lib/crtn.o
 *(COMMON)
                0x00000000000072b0                . = ALIGN ((. != 0x0)?0x8:0x1)

.lbss
 *(.dynlbss)
 *(.lbss .lbss.* .gnu.linkonce.lb.*)
 *(LARGE_COMMON)
                0x00000000000072b0                . = ALIGN (0x8)
                0x00000000000072b0                . = SEGMENT_START ("ldata-segment", .)

.lrodata
 *(.lrodata .lrodata.* .gnu.linkonce.lr.*)

.ldata          0x00000000000092b0        0x0
 *(.ldata .ldata.* .gnu.linkonce.l.*)
                0x00000000000092b0                . = ALIGN ((. != 0x0)?0x8:0x1)
                0x00000000000092b0                . = ALIGN (0x8)
                0x00000000000072b0                _end = .
                [!provide]                        PROVIDE (end = .)
                0x00000000000092b0                . = DATA_SEGMENT_END (.)

.stab
 *(.stab)

.stabstr
 *(.stabstr)

.stab.excl
 *(.stab.excl)

.stab.exclstr
 *(.stab.exclstr)

.stab.index
 *(.stab.index)

.stab.indexstr
 *(.stab.indexstr)

.comment        0x0000000000000000       0x3c
 *(.comment)
 .comment       0x0000000000000000       0x12 c:/program files/dspace rcphil 2023-b/compiler/linux_4.14_gcc_10.3/target/x86_64-linux-gnu/bin/../../x86_64-linux-gnu/lib/Scrt1.o
                                         0x26 (size before relaxing)
 .comment       0x0000000000000012       0x2a c:/program files/dspace rcphil 2023-b/compiler/linux_4.14_gcc_10.3/target/x86_64-linux-gnu/bin/../lib/gcc/x86_64-linux-gnu/10.3.0/crtbeginS.o
                                         0x2b (size before relaxing)
 .comment       0x000000000000003c       0x13 mdladapter_mdlfunctions.o64
 .comment       0x000000000000003c       0x13 mdlCode_ap.o64
 .comment       0x000000000000003c       0x13 data_in_ap.o64
 .comment       0x000000000000003c       0x13 data_out_ap.o64
 .comment       0x000000000000003c       0x13 fm_entry_ap.o64
 .comment       0x000000000000003c       0x13 fm_exit_ap.o64
 .comment       0x000000000000003c       0x13 dssimengine_accesspoint.o64
 .comment       0x000000000000003c       0x13 dssimengine_api.o64
 .comment       0x000000000000003c       0x13 dssimengine_main.o64
 .comment       0x000000000000003c       0x13 rtosal_task.o64
 .comment       0x000000000000003c       0x13 rtosal_taskap.o64
 .comment       0x000000000000003c       0x13 rtosal_simengineap.o64
 .comment       0x000000000000003c       0x13 IOCode_Data.o64
 .comment       0x000000000000003c       0x13 dssimengine_accesspoint_Voltage_Out.o64
 .comment       0x000000000000003c       0x13 C:\Users\MURTI\AppData\Local\Temp\dSPACE\CfgDesk\AppCache\2\Build\DspaceLedWithArduion\Compile\DspaceLedWithArduion\DspaceLedWithArduion.a(DspaceLedWithArduion_dsrtmdlfcn.o64)
 .comment       0x000000000000003c       0x13 C:\Users\MURTI\AppData\Local\Temp\dSPACE\CfgDesk\AppCache\2\Build\DspaceLedWithArduion\Compile\DspaceLedWithArduion\DspaceLedWithArduion.a(DspaceLedWithArduion_dsrttf.o64)
 .comment       0x000000000000003c       0x13 C:\Users\MURTI\AppData\Local\Temp\dSPACE\CfgDesk\AppCache\2\Build\DspaceLedWithArduion\Compile\DspaceLedWithArduion\DspaceLedWithArduion.a(DspaceLedWithArduion.o64)
 .comment       0x000000000000003c       0x13 C:\Users\MURTI\AppData\Local\Temp\dSPACE\CfgDesk\AppCache\2\Build\DspaceLedWithArduion\Compile\DspaceLedWithArduion\DspaceLedWithArduion.a(DspaceLedWithArduion_data.o64)
 .comment       0x000000000000003c       0x13 C:\Users\MURTI\AppData\Local\Temp\dSPACE\CfgDesk\AppCache\2\Build\DspaceLedWithArduion\Compile\DspaceLedWithArduion\DspaceLedWithArduion.a(DspaceLedWithArduion_dsrtvdf.o64)
 .comment       0x000000000000003c       0x13 C:\Program Files\dSPACE RCPHIL 2023-B\Compiler\Linux_4.14_GCC_10.3\target\x86_64-linux-gnu\lib\libc_nonshared.a(elf-init.oS)
 .comment       0x000000000000003c       0x2b c:/program files/dspace rcphil 2023-b/compiler/linux_4.14_gcc_10.3/target/x86_64-linux-gnu/bin/../lib/gcc/x86_64-linux-gnu/10.3.0/crtendS.o

.gnu.build.attributes
 *(.gnu.build.attributes .gnu.build.attributes.*)

.debug
 *(.debug)

.line
 *(.line)

.debug_srcinfo
 *(.debug_srcinfo)

.debug_sfnames
 *(.debug_sfnames)

.debug_aranges  0x0000000000000000      0x120
 *(.debug_aranges)
 .debug_aranges
                0x0000000000000000       0x70 c:/program files/dspace rcphil 2023-b/compiler/linux_4.14_gcc_10.3/target/x86_64-linux-gnu/bin/../../x86_64-linux-gnu/lib/Scrt1.o
 .debug_aranges
                0x0000000000000070       0x40 c:/program files/dspace rcphil 2023-b/compiler/linux_4.14_gcc_10.3/target/x86_64-linux-gnu/bin/../../x86_64-linux-gnu/lib/crti.o
 .debug_aranges
                0x00000000000000b0       0x30 C:\Program Files\dSPACE RCPHIL 2023-B\Compiler\Linux_4.14_GCC_10.3\target\x86_64-linux-gnu\lib\libc_nonshared.a(elf-init.oS)
 .debug_aranges
                0x00000000000000e0       0x40 c:/program files/dspace rcphil 2023-b/compiler/linux_4.14_gcc_10.3/target/x86_64-linux-gnu/bin/../../x86_64-linux-gnu/lib/crtn.o

.debug_pubnames
 *(.debug_pubnames)

.debug_info     0x0000000000000000      0x71c
 *(.debug_info .gnu.linkonce.wi.*)
 .debug_info    0x0000000000000000      0x53f c:/program files/dspace rcphil 2023-b/compiler/linux_4.14_gcc_10.3/target/x86_64-linux-gnu/bin/../../x86_64-linux-gnu/lib/Scrt1.o
 .debug_info    0x000000000000053f       0x22 c:/program files/dspace rcphil 2023-b/compiler/linux_4.14_gcc_10.3/target/x86_64-linux-gnu/bin/../../x86_64-linux-gnu/lib/crti.o
 .debug_info    0x0000000000000561      0x199 C:\Program Files\dSPACE RCPHIL 2023-B\Compiler\Linux_4.14_GCC_10.3\target\x86_64-linux-gnu\lib\libc_nonshared.a(elf-init.oS)
 .debug_info    0x00000000000006fa       0x22 c:/program files/dspace rcphil 2023-b/compiler/linux_4.14_gcc_10.3/target/x86_64-linux-gnu/bin/../../x86_64-linux-gnu/lib/crtn.o

.debug_abbrev   0x0000000000000000      0x2a1
 *(.debug_abbrev)
 .debug_abbrev  0x0000000000000000      0x153 c:/program files/dspace rcphil 2023-b/compiler/linux_4.14_gcc_10.3/target/x86_64-linux-gnu/bin/../../x86_64-linux-gnu/lib/Scrt1.o
 .debug_abbrev  0x0000000000000153       0x12 c:/program files/dspace rcphil 2023-b/compiler/linux_4.14_gcc_10.3/target/x86_64-linux-gnu/bin/../../x86_64-linux-gnu/lib/crti.o
 .debug_abbrev  0x0000000000000165      0x12a C:\Program Files\dSPACE RCPHIL 2023-B\Compiler\Linux_4.14_GCC_10.3\target\x86_64-linux-gnu\lib\libc_nonshared.a(elf-init.oS)
 .debug_abbrev  0x000000000000028f       0x12 c:/program files/dspace rcphil 2023-b/compiler/linux_4.14_gcc_10.3/target/x86_64-linux-gnu/bin/../../x86_64-linux-gnu/lib/crtn.o

.debug_line     0x0000000000000000      0x332
 *(.debug_line .debug_line.* .debug_line_end)
 .debug_line    0x0000000000000000      0x154 c:/program files/dspace rcphil 2023-b/compiler/linux_4.14_gcc_10.3/target/x86_64-linux-gnu/bin/../../x86_64-linux-gnu/lib/Scrt1.o
 .debug_line    0x0000000000000154       0x65 c:/program files/dspace rcphil 2023-b/compiler/linux_4.14_gcc_10.3/target/x86_64-linux-gnu/bin/../../x86_64-linux-gnu/lib/crti.o
 .debug_line    0x00000000000001b9      0x118 C:\Program Files\dSPACE RCPHIL 2023-B\Compiler\Linux_4.14_GCC_10.3\target\x86_64-linux-gnu\lib\libc_nonshared.a(elf-init.oS)
 .debug_line    0x00000000000002d1       0x61 c:/program files/dspace rcphil 2023-b/compiler/linux_4.14_gcc_10.3/target/x86_64-linux-gnu/bin/../../x86_64-linux-gnu/lib/crtn.o

.debug_frame
 *(.debug_frame)

.debug_str      0x0000000000000000      0x4b6
 *(.debug_str)
 .debug_str     0x0000000000000000      0x366 c:/program files/dspace rcphil 2023-b/compiler/linux_4.14_gcc_10.3/target/x86_64-linux-gnu/bin/../../x86_64-linux-gnu/lib/Scrt1.o
                                        0x4e6 (size before relaxing)
 .debug_str     0x0000000000000366       0x19 c:/program files/dspace rcphil 2023-b/compiler/linux_4.14_gcc_10.3/target/x86_64-linux-gnu/bin/../../x86_64-linux-gnu/lib/crti.o
                                         0x51 (size before relaxing)
 .debug_str     0x000000000000037f      0x11e C:\Program Files\dSPACE RCPHIL 2023-B\Compiler\Linux_4.14_GCC_10.3\target\x86_64-linux-gnu\lib\libc_nonshared.a(elf-init.oS)
                                        0x18a (size before relaxing)
 .debug_str     0x000000000000049d       0x19 c:/program files/dspace rcphil 2023-b/compiler/linux_4.14_gcc_10.3/target/x86_64-linux-gnu/bin/../../x86_64-linux-gnu/lib/crtn.o
                                         0x51 (size before relaxing)

.debug_loc      0x0000000000000000      0x16f
 *(.debug_loc)
 .debug_loc     0x0000000000000000      0x16f C:\Program Files\dSPACE RCPHIL 2023-B\Compiler\Linux_4.14_GCC_10.3\target\x86_64-linux-gnu\lib\libc_nonshared.a(elf-init.oS)

.debug_macinfo
 *(.debug_macinfo)

.debug_weaknames
 *(.debug_weaknames)

.debug_funcnames
 *(.debug_funcnames)

.debug_typenames
 *(.debug_typenames)

.debug_varnames
 *(.debug_varnames)

.debug_pubtypes
 *(.debug_pubtypes)

.debug_ranges   0x0000000000000000       0x80
 *(.debug_ranges)
 .debug_ranges  0x0000000000000000       0x40 c:/program files/dspace rcphil 2023-b/compiler/linux_4.14_gcc_10.3/target/x86_64-linux-gnu/bin/../../x86_64-linux-gnu/lib/crti.o
 .debug_ranges  0x0000000000000040       0x40 c:/program files/dspace rcphil 2023-b/compiler/linux_4.14_gcc_10.3/target/x86_64-linux-gnu/bin/../../x86_64-linux-gnu/lib/crtn.o

.debug_macro
 *(.debug_macro)

.debug_addr
 *(.debug_addr)

.gnu.attributes
 *(.gnu.attributes)

/DISCARD/
 *(.note.GNU-stack)
 *(.gnu_debuglink)
 *(.gnu.lto_*)
OUTPUT(DspaceLedWithArduion.x64 elf64-x86-64)
